; Function Attrs: nounwind uwtable
define internal range(i32 -12, 1) i32 @showwavespic_config_input(ptr noundef readonly captures(none) %0) #2 {
  %2 = getelementptr inbounds nuw i8, ptr %0, i64 16
  %3 = load ptr, ptr %2, align 8, !tbaa !54
  %4 = getelementptr inbounds nuw i8, ptr %3, i64 72
  %5 = load ptr, ptr %4, align 8, !tbaa !22
  %6 = getelementptr inbounds nuw i8, ptr %5, i64 144
  %7 = load i32, ptr %6, align 8, !tbaa !23
  %.not = icmp eq i32 %7, 0
  br i1 %.not, label %14, label %8

8:                                                ; preds = %1
  %9 = getelementptr inbounds nuw i8, ptr %0, i64 76
  %10 = load i32, ptr %9, align 4, !tbaa !55
  %11 = sext i32 %10 to i64
  %12 = tail call noalias ptr @av_calloc(i64 noundef %11, i64 noundef 8) #17
  %13 = getelementptr inbounds nuw i8, ptr %5, i64 176
  store ptr %12, ptr %13, align 8, !tbaa !110
  %.not6 = icmp eq ptr %12, null
  br i1 %.not6, label %15, label %14

14:                                               ; preds = %8, %1
  br label %15

15:                                               ; preds = %8, %14
  %.0 = phi i32 [ 0, %14 ], [ -12, %8 ]
  ret i32 %.0
}